; Function Attrs: nounwind uwtable
define range(i32 -1, 1) i32 @H5C_reset_cache_hit_rate_stats(ptr noundef writeonly %0) local_unnamed_addr #0 {
  %2 = icmp eq ptr %0, null
  br i1 %2, label %3, label %7

3:                                                ; preds = %1
  %4 = load i64, ptr @H5E_CACHE_g, align 8
  %5 = load i64, ptr @H5E_BADVALUE_g, align 8
  %6 = tail call i32 (ptr, ptr, i32, i64, i64, ptr, ...) @H5E_printf_stack(ptr noundef nonnull @.str.1, ptr noundef nonnull @__func__.H5C_reset_cache_hit_rate_stats, i32 noundef 788, i64 noundef %4, i64 noundef %5, ptr noundef nonnull @.str.20) #8
  br label %9

7:                                                ; preds = %1
  %8 = getelementptr inbounds i8, ptr %0, i64 527600
  tail call void @llvm.memset.p0.i64(ptr noundef nonnull align 8 dereferenceable(16) %8, i8 0, i64 16, i1 false)
  br label %9

9:                                                ; preds = %7, %3
  %.0 = phi i32 [ -1, %3 ], [ 0, %7 ]
  ret i32 %.0
}